#include <math.h>
#include <stdio.h>
#include <stdlib.h>
#include <string.h>


main()
{
	int a[25],b[25],k,i,j,m=0;
	scanf("%d",&k);
	for(i=0;i<k;i++)
		scanf("%d",a+i);
	for(i=0;i<k;i++)
	{
		b[i]=1;
		for(j=0;j<i;j++)
			if(a[j]>=a[i]&&b[j]+1>b[i]) b[i]=b[j]+1;
		if(b[i]>m) m=b[i];
	}
	printf("%d",m);
}